; Function Attrs: nounwind uwtable
define range(i32 -1, 1) i32 @ark_MRIStepInnerSetRTol(ptr noundef %0, double noundef %1) #0 {
  %3 = alloca ptr, align 8
  call void @llvm.lifetime.start.p0(i64 8, ptr nonnull %3) #16
  %4 = call i32 @MRIStepInnerStepper_GetContent(ptr noundef %0, ptr noundef nonnull %3) #16
  %.not = icmp eq i32 %4, 0
  br i1 %.not, label %5, label %13

5:                                                ; preds = %2
  %6 = load ptr, ptr %3, align 8, !tbaa !157
  %7 = icmp eq ptr %6, null
  br i1 %7, label %8, label %9

8:                                                ; preds = %5
  call void (ptr, i32, i32, ptr, ptr, ptr, ...) @arkProcessError(ptr noundef null, i32 noundef -21, i32 noundef 3883, ptr noundef nonnull @__func__.ark_MRIStepInnerSetRTol, ptr noundef nonnull @.str, ptr noundef nonnull @.str.1)
  br label %13

9:                                                ; preds = %5
  %10 = fcmp ogt double %1, 0.000000e+00
  br i1 %10, label %11, label %13

11:                                               ; preds = %9
  %12 = getelementptr inbounds nuw i8, ptr %6, i64 32
  store double %1, ptr %12, align 8, !tbaa !85
  br label %13

13:                                               ; preds = %9, %2, %11, %8
  %.0 = phi i32 [ -1, %8 ], [ 0, %11 ], [ -1, %2 ], [ -1, %9 ]
  call void @llvm.lifetime.end.p0(i64 8, ptr nonnull %3) #16
  ret i32 %.0
}